; Function Attrs: mustprogress uwtable
define internal void @_ZL55InitDefaultsscc_info_NumberFormat_phonemetadata_2eprotov() #3 personality ptr @__gxx_personality_v0 {
  tail call void @_ZN6google8protobuf8internal13VerifyVersionEiiPKc(i32 noundef 3012004, i32 noundef 3012000, ptr noundef nonnull @.str)
  store ptr null, ptr getelementptr inbounds (%"class.i18n::phonenumbers::NumberFormatDefaultTypeInternal", ptr @_ZN4i18n12phonenumbers31_NumberFormat_default_instance_E, i64 0, i32 0, i32 0, i32 1, i64 0), align 8
  store ptr getelementptr inbounds ({ [16 x ptr] }, ptr @_ZTVN4i18n12phonenumbers12NumberFormatE, i64 0, i32 0, i64 2), ptr @_ZN4i18n12phonenumbers31_NumberFormat_default_instance_E, align 8
  store i32 0, ptr getelementptr inbounds (%"class.i18n::phonenumbers::NumberFormatDefaultTypeInternal", ptr @_ZN4i18n12phonenumbers31_NumberFormat_default_instance_E, i64 0, i32 0, i32 0, i32 1, i64 8), align 8
  store i32 0, ptr getelementptr inbounds (%"class.i18n::phonenumbers::NumberFormatDefaultTypeInternal", ptr @_ZN4i18n12phonenumbers31_NumberFormat_default_instance_E, i64 0, i32 0, i32 0, i32 1, i64 12), align 4
  tail call void @_ZN6google8protobuf16RepeatedPtrFieldINSt7__cxx1112basic_stringIcSt11char_traitsIcESaIcEEEEC1EPNS0_5ArenaE(ptr noundef nonnull align 8 dereferenceable(24) getelementptr inbounds (%"class.i18n::phonenumbers::NumberFormatDefaultTypeInternal", ptr @_ZN4i18n12phonenumbers31_NumberFormat_default_instance_E, i64 0, i32 0, i32 0, i32 1, i64 16), ptr noundef null)
  %1 = load atomic i32, ptr @scc_info_NumberFormat_phonemetadata_2eproto acquire, align 8
  %.not.i.i.i.i = icmp eq i32 %1, 0
  br i1 %.not.i.i.i.i, label %_ZN4i18n12phonenumbers12NumberFormatC2Ev.exit, label %2

2:                                                ; preds = %0
  invoke void @_ZN6google8protobuf8internal11InitSCCImplEPNS1_11SCCInfoBaseE(ptr noundef nonnull @scc_info_NumberFormat_phonemetadata_2eproto)
          to label %_ZN4i18n12phonenumbers12NumberFormatC2Ev.exit unwind label %3

3:                                                ; preds = %2
  %4 = landingpad { ptr, i32 }
          cleanup
  tail call void @_ZN6google8protobuf16RepeatedPtrFieldINSt7__cxx1112basic_stringIcSt11char_traitsIcESaIcEEEED1Ev(ptr noundef nonnull align 8 dereferenceable(24) getelementptr inbounds (%"class.i18n::phonenumbers::NumberFormatDefaultTypeInternal", ptr @_ZN4i18n12phonenumbers31_NumberFormat_default_instance_E, i64 0, i32 0, i32 0, i32 1, i64 16)) #21
  resume { ptr, i32 } %4

_ZN4i18n12phonenumbers12NumberFormatC2Ev.exit:    ; preds = %0, %2
  store ptr @_ZN6google8protobuf8internal26fixed_address_empty_stringB5cxx11E, ptr getelementptr inbounds (%"class.i18n::phonenumbers::NumberFormatDefaultTypeInternal", ptr @_ZN4i18n12phonenumbers31_NumberFormat_default_instance_E, i64 0, i32 0, i32 0, i32 1, i64 40), align 8
  store ptr @_ZN6google8protobuf8internal26fixed_address_empty_stringB5cxx11E, ptr getelementptr inbounds (%"class.i18n::phonenumbers::NumberFormatDefaultTypeInternal", ptr @_ZN4i18n12phonenumbers31_NumberFormat_default_instance_E, i64 0, i32 0, i32 0, i32 1, i64 48), align 8
  store ptr @_ZN6google8protobuf8internal26fixed_address_empty_stringB5cxx11E, ptr getelementptr inbounds (%"class.i18n::phonenumbers::NumberFormatDefaultTypeInternal", ptr @_ZN4i18n12phonenumbers31_NumberFormat_default_instance_E, i64 0, i32 0, i32 0, i32 1, i64 56), align 8
  store ptr @_ZN6google8protobuf8internal26fixed_address_empty_stringB5cxx11E, ptr getelementptr inbounds (%"class.i18n::phonenumbers::NumberFormatDefaultTypeInternal", ptr @_ZN4i18n12phonenumbers31_NumberFormat_default_instance_E, i64 0, i32 0, i32 0, i32 1, i64 64), align 8
  store i8 0, ptr getelementptr inbounds (%"class.i18n::phonenumbers::NumberFormatDefaultTypeInternal", ptr @_ZN4i18n12phonenumbers31_NumberFormat_default_instance_E, i64 0, i32 0, i32 0, i32 1, i64 72), align 8
  tail call void @_ZN6google8protobuf8internal13OnShutdownRunEPFvPKvES3_(ptr noundef nonnull @_ZN6google8protobuf8internal14DestroyMessageEPKv, ptr noundef nonnull @_ZN4i18n12phonenumbers31_NumberFormat_default_instance_E)
  ret void
}